; Function Attrs: mustprogress uwtable
define hidden void @_ZN4ncnn11ConvolutionC2Ev(ptr noundef nonnull align 8 dereferenceable(712) %0) unnamed_addr #1 align 2 personality ptr @__gxx_personality_v0 {
  tail call void @_ZN4ncnn5LayerC2Ev(ptr noundef nonnull align 8 dereferenceable(208) %0)
  store ptr getelementptr inbounds nuw inrange(-16, 80) (i8, ptr @_ZTVN4ncnn11ConvolutionE, i64 16), ptr %0, align 8, !tbaa !4
  %2 = getelementptr inbounds nuw i8, ptr %0, i64 272
  %3 = getelementptr inbounds nuw i8, ptr %0, i64 304
  %4 = getelementptr inbounds nuw i8, ptr %0, i64 336
  store i64 0, ptr %4, align 8, !tbaa !17
  %5 = getelementptr inbounds nuw i8, ptr %0, i64 352
  %6 = getelementptr inbounds nuw i8, ptr %0, i64 384
  %7 = getelementptr inbounds nuw i8, ptr %0, i64 416
  %8 = getelementptr inbounds nuw i8, ptr %0, i64 456
  %9 = getelementptr inbounds nuw i8, ptr %0, i64 488
  %10 = getelementptr inbounds nuw i8, ptr %0, i64 528
  %11 = getelementptr inbounds nuw i8, ptr %0, i64 560
  %12 = getelementptr inbounds nuw i8, ptr %0, i64 600
  %13 = getelementptr inbounds nuw i8, ptr %0, i64 632
  %14 = getelementptr inbounds nuw i8, ptr %0, i64 672
  %15 = getelementptr inbounds nuw i8, ptr %0, i64 704
  store i64 0, ptr %15, align 8, !tbaa !17
  %16 = getelementptr inbounds nuw i8, ptr %0, i64 8
  tail call void @llvm.memset.p0.i64(ptr noundef nonnull align 8 dereferenceable(28) %2, i8 0, i64 28, i1 false)
  tail call void @llvm.memset.p0.i64(ptr noundef nonnull align 8 dereferenceable(28) %3, i8 0, i64 28, i1 false)
  tail call void @llvm.memset.p0.i64(ptr noundef nonnull align 8 dereferenceable(28) %5, i8 0, i64 28, i1 false)
  tail call void @llvm.memset.p0.i64(ptr noundef nonnull align 8 dereferenceable(28) %6, i8 0, i64 28, i1 false)
  tail call void @llvm.memset.p0.i64(ptr noundef nonnull align 8 dereferenceable(36) %7, i8 0, i64 36, i1 false)
  tail call void @llvm.memset.p0.i64(ptr noundef nonnull align 8 dereferenceable(28) %8, i8 0, i64 28, i1 false)
  tail call void @llvm.memset.p0.i64(ptr noundef nonnull align 8 dereferenceable(36) %9, i8 0, i64 36, i1 false)
  tail call void @llvm.memset.p0.i64(ptr noundef nonnull align 8 dereferenceable(28) %10, i8 0, i64 28, i1 false)
  tail call void @llvm.memset.p0.i64(ptr noundef nonnull align 8 dereferenceable(36) %11, i8 0, i64 36, i1 false)
  tail call void @llvm.memset.p0.i64(ptr noundef nonnull align 8 dereferenceable(28) %12, i8 0, i64 28, i1 false)
  tail call void @llvm.memset.p0.i64(ptr noundef nonnull align 8 dereferenceable(36) %13, i8 0, i64 36, i1 false)
  tail call void @llvm.memset.p0.i64(ptr noundef nonnull align 8 dereferenceable(28) %14, i8 0, i64 28, i1 false)
  store i8 1, ptr %16, align 8, !tbaa !58
  %17 = getelementptr inbounds nuw i8, ptr %0, i64 9
  store i8 0, ptr %17, align 1, !tbaa !70
  ret void
}